; Function Attrs: mustprogress nofree norecurse nosync nounwind willreturn memory(argmem: read) uwtable
define dso_local range(i32 0, 129) i32 @i128_ctz(ptr noundef readonly captures(none) %0) local_unnamed_addr #8 {
  %2 = getelementptr inbounds nuw i8, ptr %0, i64 8
  %3 = load i64, ptr %2, align 8
  %.not = icmp eq i64 %3, 0
  br i1 %.not, label %4, label %48

4:                                                ; preds = %1
  %5 = load i64, ptr %0, align 8
  %6 = icmp eq i64 %5, 0
  %7 = and i64 %5, 4294967295
  %8 = add nuw nsw i64 %7, 4294967295
  %9 = lshr i64 %8, 27
  %10 = and i64 %9, 32
  %11 = xor i64 %10, 32
  %12 = zext i1 %6 to i64
  %13 = or disjoint i64 %11, %12
  %14 = lshr i64 %5, %11
  %15 = and i64 %14, 65535
  %16 = add nuw nsw i64 %15, 65535
  %17 = lshr i64 %16, 12
  %18 = and i64 %17, 16
  %19 = xor i64 %18, 16
  %20 = or disjoint i64 %13, %19
  %21 = lshr i64 %14, %19
  %22 = and i64 %21, 255
  %23 = add nuw nsw i64 %22, 255
  %24 = lshr i64 %23, 5
  %25 = and i64 %24, 8
  %26 = xor i64 %25, 8
  %27 = or disjoint i64 %20, %26
  %28 = lshr i64 %21, %26
  %29 = and i64 %28, 15
  %30 = add nuw nsw i64 %29, 15
  %31 = lshr i64 %30, 2
  %32 = and i64 %31, 4
  %33 = xor i64 %32, 4
  %34 = or disjoint i64 %27, %33
  %35 = lshr i64 %28, %33
  %36 = and i64 %35, 3
  %37 = add nuw nsw i64 %36, 3
  %38 = lshr i64 %37, 1
  %39 = and i64 %38, 2
  %40 = xor i64 %39, 2
  %41 = lshr i64 %35, %40
  %42 = and i64 %41, 1
  %43 = xor i64 %42, 1
  %44 = or disjoint i64 %34, %40
  %45 = add nuw nsw i64 %44, %43
  %46 = trunc nuw nsw i64 %45 to i32
  %47 = add nuw nsw i32 %46, 64
  br label %87

48:                                               ; preds = %1
  %49 = and i64 %3, 4294967295
  %50 = add nuw nsw i64 %49, 4294967295
  %51 = lshr i64 %50, 27
  %52 = and i64 %51, 32
  %53 = xor i64 %52, 32
  %54 = lshr i64 %3, %53
  %55 = and i64 %54, 65535
  %56 = add nuw nsw i64 %55, 65535
  %57 = lshr i64 %56, 12
  %58 = and i64 %57, 16
  %59 = xor i64 %58, 16
  %60 = lshr i64 %54, %59
  %61 = and i64 %60, 255
  %62 = add nuw nsw i64 %61, 255
  %63 = lshr i64 %62, 5
  %64 = and i64 %63, 8
  %65 = xor i64 %64, 8
  %66 = lshr i64 %60, %65
  %67 = and i64 %66, 15
  %68 = add nuw nsw i64 %67, 15
  %69 = lshr i64 %68, 2
  %70 = and i64 %69, 4
  %71 = xor i64 %70, 4
  %72 = lshr i64 %66, %71
  %73 = and i64 %72, 3
  %74 = add nuw nsw i64 %73, 3
  %75 = lshr i64 %74, 1
  %76 = and i64 %75, 2
  %77 = xor i64 %76, 2
  %78 = lshr i64 %72, %77
  %79 = and i64 %78, 1
  %80 = or disjoint i64 %53, %79
  %81 = or disjoint i64 %80, %59
  %82 = or disjoint i64 %81, %65
  %83 = or disjoint i64 %82, %71
  %84 = or i64 %83, %77
  %85 = trunc nuw nsw i64 %84 to i32
  %86 = xor i32 %85, 1
  br label %87

87:                                               ; preds = %48, %4
  %88 = phi i32 [ %47, %4 ], [ %86, %48 ]
  ret i32 %88
}